; ModuleID = '1762.c'
source_filename = "1762.c"
target datalayout = "e-m:e-p270:32:32-p271:32:32-p272:64:64-i64:64-f80:128-n8:16:32:64-S128"
target triple = "x86_64-pc-linux-gnu"

@.str = private unnamed_addr constant [9 x i8] c"%f%f%f%f\00", align 1
@.str.1 = private unnamed_addr constant [3 x i8] c"%f\00", align 1
@.str.2 = private unnamed_addr constant [6 x i8] c"%.4f\0A\00", align 1
@.str.3 = private unnamed_addr constant [15 x i8] c"Invalid input\0A\00", align 1

; Function Attrs: noinline nounwind uwtable
define dso_local i32 @main() #0 {
  %1 = alloca i32, align 4
  %2 = alloca float, align 4
  %3 = alloca float, align 4
  %4 = alloca float, align 4
  %5 = alloca float, align 4
  %6 = alloca float, align 4
  %7 = alloca float, align 4
  %8 = alloca float, align 4
  %9 = alloca double, align 8
  %10 = alloca double, align 8
  store i32 0, i32* %1, align 4
  %11 = call i32 (i8*, ...) @__isoc99_scanf(i8* getelementptr inbounds ([9 x i8], [9 x i8]* @.str, i64 0, i64 0), float* %2, float* %3, float* %4, float* %5)
  %12 = call i32 (i8*, ...) @__isoc99_scanf(i8* getelementptr inbounds ([3 x i8], [3 x i8]* @.str.1, i64 0, i64 0), float* %8)
  %13 = load float, float* %2, align 4
  %14 = load float, float* %3, align 4
  %15 = fadd float %13, %14
  %16 = load float, float* %4, align 4
  %17 = fadd float %15, %16
  %18 = load float, float* %5, align 4
  %19 = fadd float %17, %18
  %20 = fdiv float %19, 2.000000e+00
  store float %20, float* %6, align 4
  %21 = load float, float* %8, align 4
  %22 = fmul float %21, 1.000000e+02
  %23 = fdiv float %22, 3.600000e+02
  %24 = fpext float %23 to double
  store double %24, double* %9, align 8
  %25 = load float, float* %6, align 4
  %26 = load float, float* %2, align 4
  %27 = fsub float %25, %26
  %28 = load float, float* %6, align 4
  %29 = load float, float* %3, align 4
  %30 = fsub float %28, %29
  %31 = fmul float %27, %30
  %32 = load float, float* %6, align 4
  %33 = load float, float* %4, align 4
  %34 = fsub float %32, %33
  %35 = fmul float %31, %34
  %36 = load float, float* %6, align 4
  %37 = load float, float* %5, align 4
  %38 = fsub float %36, %37
  %39 = fmul float %35, %38
  %40 = fpext float %39 to double
  %41 = load float, float* %2, align 4
  %42 = load float, float* %3, align 4
  %43 = fmul float %41, %42
  %44 = load float, float* %4, align 4
  %45 = fmul float %43, %44
  %46 = load float, float* %5, align 4
  %47 = fmul float %45, %46
  %48 = fpext float %47 to double
  %49 = load double, double* %9, align 8
  %50 = call double @cos(double %49) #3
  %51 = call double @pow(double %50, double 2.000000e+00) #3
  %52 = fmul double %48, %51
  %53 = fsub double %40, %52
  store double %53, double* %10, align 8
  %54 = load double, double* %10, align 8
  %55 = fcmp oge double %54, 0.000000e+00
  br i1 %55, label %56, label %63

56:                                               ; preds = %0
  %57 = load double, double* %10, align 8
  %58 = fptrunc double %57 to float
  store float %58, float* %7, align 4
  %59 = load float, float* %7, align 4
  %60 = fpext float %59 to double
  %61 = call double @sqrt(double %60) #3
  %62 = call i32 (i8*, ...) @printf(i8* getelementptr inbounds ([6 x i8], [6 x i8]* @.str.2, i64 0, i64 0), double %61)
  br label %65

63:                                               ; preds = %0
  %64 = call i32 (i8*, ...) @printf(i8* getelementptr inbounds ([15 x i8], [15 x i8]* @.str.3, i64 0, i64 0))
  br label %65

65:                                               ; preds = %63, %56
  ret i32 0
}

declare dso_local i32 @__isoc99_scanf(i8*, ...) #1

; Function Attrs: nounwind
declare dso_local double @pow(double, double) #2

; Function Attrs: nounwind
declare dso_local double @cos(double) #2

declare dso_local i32 @printf(i8*, ...) #1

; Function Attrs: nounwind
declare dso_local double @sqrt(double) #2


!llvm.module.flags = !{!0}
!llvm.ident = !{!1}

!0 = !{i32 1, !"wchar_size", i32 4}
!1 = !{!"clang version 10.0.0-4ubuntu1 "}
